; Function Attrs: nounwind uwtable
define internal ptr @range_reduce(ptr noundef readonly captures(none) %0, ptr readnone captures(none) %1) #0 {
  %3 = getelementptr i8, ptr %0, i64 8
  %.val = load ptr, ptr %3, align 8, !tbaa !17
  %4 = getelementptr inbounds nuw i8, ptr %0, i64 16
  %5 = load ptr, ptr %4, align 8, !tbaa !4
  %6 = getelementptr inbounds nuw i8, ptr %0, i64 24
  %7 = load ptr, ptr %6, align 8, !tbaa !13
  %8 = getelementptr inbounds nuw i8, ptr %0, i64 32
  %9 = load ptr, ptr %8, align 8, !tbaa !14
  %10 = tail call ptr (ptr, ...) @Py_BuildValue(ptr noundef nonnull @.str.12, ptr noundef %.val, ptr noundef %5, ptr noundef %7, ptr noundef %9) #6
  ret ptr %10
}